target datalayout = "e-m:e-p270:32:32-p271:32:32-p272:64:64-i64:64-i128:128-f80:128-n8:16:32:64-S128"
target triple = "x86_64-pc-linux-gnu"

%"class.cv::AsyncArray" = type { ptr }
%"struct.cv::AsyncArray::Impl" = type <{ i32, i32, i32, [4 x i8], %"class.std::mutex", %"class.std::condition_variable", i8, [7 x i8], %"struct.cv::Ptr", %"struct.cv::Ptr.0", i8, [7 x i8], %"class.std::__exception_ptr::exception_ptr", %"class.cv::Exception", i8, i8, [6 x i8] }>
%"class.std::mutex" = type { %"class.std::__mutex_base" }
%"class.std::__mutex_base" = type { %union.pthread_mutex_t }
%union.pthread_mutex_t = type { %struct.__pthread_mutex_s }
%struct.__pthread_mutex_s = type { i32, i32, i32, i32, i32, i16, i16, %struct.__pthread_internal_list }
%struct.__pthread_internal_list = type { ptr, ptr }
%"class.std::condition_variable" = type { %"class.std::__condvar" }
%"class.std::__condvar" = type { %union.pthread_cond_t }
%union.pthread_cond_t = type { %struct.__pthread_cond_s }
%struct.__pthread_cond_s = type { %union.__atomic_wide_counter, %union.__atomic_wide_counter, [2 x i32], [2 x i32], i32, i32, [2 x i32] }
%union.__atomic_wide_counter = type { i64 }
%"struct.cv::Ptr" = type { %"class.std::shared_ptr" }
%"class.std::shared_ptr" = type { %"class.std::__shared_ptr" }
%"class.std::__shared_ptr" = type { ptr, %"class.std::__shared_count" }
%"class.std::__shared_count" = type { ptr }
%"struct.cv::Ptr.0" = type { %"class.std::shared_ptr.1" }
%"class.std::shared_ptr.1" = type { %"class.std::__shared_ptr.2" }
%"class.std::__shared_ptr.2" = type { ptr, %"class.std::__shared_count" }
%"class.std::__exception_ptr::exception_ptr" = type { ptr }
%"class.cv::Exception" = type <{ %"class.std::exception", %"class.std::__cxx11::basic_string", i32, [4 x i8], %"class.std::__cxx11::basic_string", %"class.std::__cxx11::basic_string", %"class.std::__cxx11::basic_string", i32, [4 x i8] }>
%"class.std::exception" = type { ptr }
%"class.std::__cxx11::basic_string" = type { %"struct.std::__cxx11::basic_string<char>::_Alloc_hider", i64, %union.anon }
%"struct.std::__cxx11::basic_string<char>::_Alloc_hider" = type { ptr }
%union.anon = type { i64, [8 x i8] }

; Function Attrs: mustprogress nounwind uwtable
define linkonce_odr hidden noundef zeroext i1 @_ZNK2cv10AsyncArray4Impl5validEv(ptr noundef nonnull align 8 dereferenceable(314) %0) #4 comdat align 2 {
  %2 = alloca i1, align 1
  %3 = alloca ptr, align 8
  store ptr %0, ptr %3, align 8, !tbaa !11
  %4 = load ptr, ptr %3, align 8
  %5 = getelementptr inbounds nuw %"struct.cv::AsyncArray::Impl", ptr %4, i32 0, i32 14
  %6 = load i8, ptr %5, align 8, !tbaa !26, !range !48, !noundef !49
  %7 = trunc i8 %6 to i1
  br i1 %7, label %8, label %9

8:                                                ; preds = %1
  store i1 false, ptr %2, align 1
  br label %19

9:                                                ; preds = %1
  %10 = getelementptr inbounds nuw %"struct.cv::AsyncArray::Impl", ptr %4, i32 0, i32 2
  %11 = load i32, ptr %10, align 8, !tbaa !51
  %12 = icmp eq i32 %11, 0
  br i1 %12, label %13, label %18

13:                                               ; preds = %9
  %14 = getelementptr inbounds nuw %"struct.cv::AsyncArray::Impl", ptr %4, i32 0, i32 6
  %15 = load i8, ptr %14, align 8, !tbaa !50, !range !48, !noundef !49
  %16 = trunc i8 %15 to i1
  br i1 %16, label %18, label %17

17:                                               ; preds = %13
  store i1 false, ptr %2, align 1
  br label %19

18:                                               ; preds = %13, %9
  store i1 true, ptr %2, align 1
  br label %19

19:                                               ; preds = %18, %17, %8
  %20 = load i1, ptr %2, align 1
  ret i1 %20
}

; Function Attrs: mustprogress nounwind uwtable
define noundef zeroext i1 @_ZNK2cv10AsyncArray5validEv(ptr noundef nonnull align 8 dereferenceable(8) %0) #4 align 2 {
  %2 = alloca i1, align 1
  %3 = alloca ptr, align 8
  store ptr %0, ptr %3, align 8, !tbaa !3
  %4 = load ptr, ptr %3, align 8
  %5 = getelementptr inbounds nuw %"class.cv::AsyncArray", ptr %4, i32 0, i32 0
  %6 = load ptr, ptr %5, align 8, !tbaa !8
  %7 = icmp ne ptr %6, null
  br i1 %7, label %9, label %8

8:                                                ; preds = %1
  store i1 false, ptr %2, align 1
  br label %13

9:                                                ; preds = %1
  %10 = getelementptr inbounds nuw %"class.cv::AsyncArray", ptr %4, i32 0, i32 0
  %11 = load ptr, ptr %10, align 8, !tbaa !8
  %12 = call noundef zeroext i1 @_ZNK2cv10AsyncArray4Impl5validEv(ptr noundef nonnull align 8 dereferenceable(314) %11) #3
  store i1 %12, ptr %2, align 1
  br label %13

13:                                               ; preds = %9, %8
  %14 = load i1, ptr %2, align 1
  ret i1 %14
}