; Function Attrs: mustprogress nofree norecurse nosync nounwind willreturn memory(read, inaccessiblemem: none) uwtable
define noundef zeroext i1 @_ZNK2cv10AsyncArray5validEv(ptr noundef nonnull readonly align 8 captures(none) dereferenceable(8) %0) local_unnamed_addr #9 align 2 {
  %2 = load ptr, ptr %0, align 8, !tbaa !3
  %.not = icmp eq ptr %2, null
  br i1 %.not, label %_ZNK2cv10AsyncArray4Impl5validEv.exit, label %3

3:                                                ; preds = %1
  %4 = getelementptr inbounds nuw i8, ptr %2, i64 312
  %5 = load i8, ptr %4, align 8, !tbaa !15, !range !36, !noundef !37
  %6 = trunc nuw i8 %5 to i1
  br i1 %6, label %_ZNK2cv10AsyncArray4Impl5validEv.exit, label %7

7:                                                ; preds = %3
  %8 = getelementptr inbounds nuw i8, ptr %2, i64 8
  %9 = load i32, ptr %8, align 8, !tbaa !39
  %10 = icmp eq i32 %9, 0
  br i1 %10, label %11, label %15

11:                                               ; preds = %7
  %12 = getelementptr inbounds nuw i8, ptr %2, i64 104
  %13 = load i8, ptr %12, align 8, !tbaa !38, !range !36, !noundef !37
  %14 = trunc nuw i8 %13 to i1
  br i1 %14, label %15, label %_ZNK2cv10AsyncArray4Impl5validEv.exit

15:                                               ; preds = %11, %7
  br label %_ZNK2cv10AsyncArray4Impl5validEv.exit

_ZNK2cv10AsyncArray4Impl5validEv.exit:            ; preds = %15, %11, %3, %1
  %.0 = phi i1 [ false, %1 ], [ true, %15 ], [ false, %3 ], [ false, %11 ]
  ret i1 %.0
}